target datalayout = "e-m:e-p270:32:32-p271:32:32-p272:64:64-i64:64-i128:128-f80:128-n8:16:32:64-S128"
target triple = "x86_64-pc-linux-gnu"

%"class.Deoptimization::UnrollBlock" = type { i32, i32, i32, i32, ptr, ptr, ptr, i8, i64, i32, i32, i64, i64 }

; Function Attrs: mustprogress nounwind uwtable
define hidden void @_ZN14Deoptimization11UnrollBlockD2Ev(ptr noundef nonnull align 8 dereferenceable(80) %0) unnamed_addr #1 align 2 {
  %2 = alloca ptr, align 8
  store ptr %0, ptr %2, align 8
  %3 = load ptr, ptr %2, align 8
  %4 = getelementptr inbounds %"class.Deoptimization::UnrollBlock", ptr %3, i32 0, i32 4
  %5 = load ptr, ptr %4, align 8
  call void @_Z8FreeHeapPv(ptr noundef %5)
  %6 = getelementptr inbounds %"class.Deoptimization::UnrollBlock", ptr %3, i32 0, i32 5
  %7 = load ptr, ptr %6, align 8
  call void @_Z8FreeHeapPv(ptr noundef %7)
  %8 = getelementptr inbounds %"class.Deoptimization::UnrollBlock", ptr %3, i32 0, i32 6
  %9 = load ptr, ptr %8, align 8
  call void @_Z8FreeHeapPv(ptr noundef %9)
  ret void
}