; Function Attrs: mustprogress nounwind uwtable
define hidden void @_ZN14Deoptimization11UnrollBlockD2Ev(ptr nocapture noundef nonnull readonly align 8 dereferenceable(80) %0) unnamed_addr #0 align 2 {
  %2 = getelementptr inbounds i8, ptr %0, i64 16
  %3 = load ptr, ptr %2, align 8
  tail call void @_Z8FreeHeapPv(ptr noundef %3) #22
  %4 = getelementptr inbounds i8, ptr %0, i64 24
  %5 = load ptr, ptr %4, align 8
  tail call void @_Z8FreeHeapPv(ptr noundef %5) #22
  %6 = getelementptr inbounds i8, ptr %0, i64 32
  %7 = load ptr, ptr %6, align 8
  tail call void @_Z8FreeHeapPv(ptr noundef %7) #22
  ret void
}